target datalayout = "e-m:e-p270:32:32-p271:32:32-p272:64:64-i64:64-i128:128-f80:128-n8:16:32:64-S128"
target triple = "x86_64-pc-linux-gnu"

%struct.MemoryManager = type { ptr, ptr, ptr }
%struct.ManagedDictionary = type { i32, %struct.MemoryManager, ptr }

; Function Attrs: nounwind uwtable
define ptr @BrotliEncoderPrepareDictionary(i32 noundef %0, i64 noundef %1, ptr noundef %2, i32 noundef %3, ptr noundef %4, ptr noundef %5, ptr noundef %6) #0 {
  %8 = alloca ptr, align 8
  %9 = alloca i32, align 4
  %10 = alloca i64, align 8
  %11 = alloca ptr, align 8
  %12 = alloca i32, align 4
  %13 = alloca ptr, align 8
  %14 = alloca ptr, align 8
  %15 = alloca ptr, align 8
  %16 = alloca ptr, align 8
  %17 = alloca i32, align 4
  %18 = alloca i32, align 4
  store i32 %0, ptr %9, align 4, !tbaa !8
  store i64 %1, ptr %10, align 8, !tbaa !75
  store ptr %2, ptr %11, align 8, !tbaa !76
  store i32 %3, ptr %12, align 4, !tbaa !8
  store ptr %4, ptr %13, align 8, !tbaa !48
  store ptr %5, ptr %14, align 8, !tbaa !48
  store ptr %6, ptr %15, align 8, !tbaa !48
  call void @llvm.lifetime.start.p0(i64 8, ptr %16) #10
  store ptr null, ptr %16, align 8, !tbaa !98
  call void @llvm.lifetime.start.p0(i64 4, ptr %17) #10
  store i32 0, ptr %17, align 4, !tbaa !8
  %19 = load i32, ptr %9, align 4, !tbaa !8
  %20 = icmp eq i32 %19, 0
  %21 = zext i1 %20 to i32
  %22 = load i32, ptr %17, align 4, !tbaa !8
  %23 = or i32 %22, %21
  store i32 %23, ptr %17, align 4, !tbaa !8
  %24 = load i32, ptr %17, align 4, !tbaa !8
  %25 = icmp ne i32 %24, 0
  br i1 %25, label %27, label %26

26:                                               ; preds = %7
  store ptr null, ptr %8, align 8
  store i32 1, ptr %18, align 4
  br label %55

27:                                               ; preds = %7
  %28 = load ptr, ptr %13, align 8, !tbaa !48
  %29 = load ptr, ptr %14, align 8, !tbaa !48
  %30 = load ptr, ptr %15, align 8, !tbaa !48
  %31 = call ptr @BrotliCreateManagedDictionary(ptr noundef %28, ptr noundef %29, ptr noundef %30)
  store ptr %31, ptr %16, align 8, !tbaa !98
  %32 = load ptr, ptr %16, align 8, !tbaa !98
  %33 = icmp eq ptr %32, null
  br i1 %33, label %34, label %35

34:                                               ; preds = %27
  store ptr null, ptr %8, align 8
  store i32 1, ptr %18, align 4
  br label %55

35:                                               ; preds = %27
  %36 = load i32, ptr %9, align 4, !tbaa !8
  %37 = icmp eq i32 %36, 0
  br i1 %37, label %38, label %46

38:                                               ; preds = %35
  %39 = load ptr, ptr %16, align 8, !tbaa !98
  %40 = getelementptr inbounds nuw %struct.ManagedDictionary, ptr %39, i32 0, i32 1
  %41 = load ptr, ptr %11, align 8, !tbaa !76
  %42 = load i64, ptr %10, align 8, !tbaa !75
  %43 = call ptr @CreatePreparedDictionary(ptr noundef %40, ptr noundef %41, i64 noundef %42)
  %44 = load ptr, ptr %16, align 8, !tbaa !98
  %45 = getelementptr inbounds nuw %struct.ManagedDictionary, ptr %44, i32 0, i32 2
  store ptr %43, ptr %45, align 8, !tbaa !100
  br label %46

46:                                               ; preds = %38, %35
  %47 = load ptr, ptr %16, align 8, !tbaa !98
  %48 = getelementptr inbounds nuw %struct.ManagedDictionary, ptr %47, i32 0, i32 2
  %49 = load ptr, ptr %48, align 8, !tbaa !100
  %50 = icmp eq ptr %49, null
  br i1 %50, label %51, label %53

51:                                               ; preds = %46
  %52 = load ptr, ptr %16, align 8, !tbaa !98
  call void @BrotliDestroyManagedDictionary(ptr noundef %52)
  store ptr null, ptr %8, align 8
  store i32 1, ptr %18, align 4
  br label %55

53:                                               ; preds = %46
  %54 = load ptr, ptr %16, align 8, !tbaa !98
  store ptr %54, ptr %8, align 8
  store i32 1, ptr %18, align 4
  br label %55

55:                                               ; preds = %53, %51, %34, %26
  call void @llvm.lifetime.end.p0(i64 4, ptr %17) #10
  call void @llvm.lifetime.end.p0(i64 8, ptr %16) #10
  %56 = load ptr, ptr %8, align 8
  ret ptr %56
}