; Function Attrs: nounwind uwtable
define ptr @BrotliEncoderPrepareDictionary(i32 noundef %0, i64 noundef %1, ptr noundef %2, i32 noundef %3, ptr noundef %4, ptr noundef %5, ptr noundef %6) local_unnamed_addr #1 {
  %8 = icmp eq i32 %0, 0
  br i1 %8, label %9, label %18

9:                                                ; preds = %7
  %10 = tail call ptr @BrotliCreateManagedDictionary(ptr noundef %4, ptr noundef %5, ptr noundef %6) #18
  %11 = icmp eq ptr %10, null
  br i1 %11, label %18, label %12

12:                                               ; preds = %9
  %13 = getelementptr inbounds nuw i8, ptr %10, i64 8
  %14 = tail call ptr @CreatePreparedDictionary(ptr noundef nonnull %13, ptr noundef %2, i64 noundef %1) #18
  %15 = getelementptr inbounds nuw i8, ptr %10, i64 32
  store ptr %14, ptr %15, align 8, !tbaa !602
  %16 = icmp eq ptr %14, null
  br i1 %16, label %17, label %18

17:                                               ; preds = %12
  tail call void @BrotliDestroyManagedDictionary(ptr noundef nonnull %10) #18
  br label %18

18:                                               ; preds = %12, %9, %7, %17
  %.0 = phi ptr [ null, %17 ], [ null, %7 ], [ null, %9 ], [ %10, %12 ]
  ret ptr %.0
}